target datalayout = "e-m:e-p270:32:32-p271:32:32-p272:64:64-i64:64-i128:128-f80:128-n8:16:32:64-S128"
target triple = "x86_64-pc-linux-gnu"

%struct._gcp_hf_ett_t = type { %struct.anon.0, %struct.anon.1 }
%struct.anon.0 = type { i32, i32, i32, i32, i32, i32 }
%struct.anon.1 = type { i32, i32, i32, i32 }
%struct.expert_field = type { i32, i32 }
%struct._h248_curr_info_t = type { ptr, ptr, ptr, ptr, ptr, ptr, ptr, ptr, ptr, ptr }
%struct._packet_info = type { ptr, ptr, i32, i32, %struct.nstime_t, %struct.nstime_t, %struct.nstime_t, i32, ptr, ptr, ptr, ptr, %struct._address, %struct._address, %struct._address, %struct._address, %struct._address, %struct._address, i32, ptr, i32, %struct.anon, i32, i32, i32, i32, ptr, i32, ptr, ptr, i16, i16, i32, i32, i16, i32, i32, ptr, ptr, ptr, i8, i8, i16, i16, i16, i32, i16, i16, ptr, ptr, ptr, ptr, ptr, i32 }
%struct.nstime_t = type { i64, i32 }
%struct._address = type { i32, i32, ptr, ptr }
%struct.anon = type { i8, [3 x i8] }
%struct._asn1_ctx_t = type { i32, i32, i8, ptr, ptr, ptr, ptr, ptr, %struct.anon.2, %struct.anon.5, %struct.anon.6, ptr }
%struct.anon.2 = type { i32, i8, i8, i8, ptr, ptr, i32, i32, ptr, ptr, ptr, %union.anon }
%union.anon = type { %struct.anon.3 }
%struct.anon.3 = type { ptr }
%struct.anon.5 = type { ptr, ptr, ptr }
%struct.anon.6 = type { i32, i8, ptr, i32, i32, ptr, ptr, ptr, %union.anon.7 }
%union.anon.7 = type { %struct.anon.8 }
%struct.anon.8 = type { ptr }

@h248_arrel = internal global %struct._gcp_hf_ett_t zeroinitializer, align 4
@ett_h248_Message = internal global i32 0, align 4
@ei_h248_errored_command = internal global %struct.expert_field zeroinitializer, align 4
@keep_persistent_data = internal global i32 0, align 4
@h248_tree = internal global ptr null, align 8
@curr_info = internal global %struct._h248_curr_info_t zeroinitializer, align 8

; Function Attrs: nounwind uwtable
define internal i32 @dissect_h248_Message(i1 noundef zeroext %0, ptr noundef %1, i32 noundef %2, ptr noundef %3, ptr noundef %4, i32 noundef %5) #0 {
  %7 = alloca i8, align 1
  %8 = alloca ptr, align 8
  %9 = alloca i32, align 4
  %10 = alloca ptr, align 8
  %11 = alloca ptr, align 8
  %12 = alloca i32, align 4
  %13 = zext i1 %0 to i8
  store i8 %13, ptr %7, align 1
  store ptr %1, ptr %8, align 8
  store i32 %2, ptr %9, align 4
  store ptr %3, ptr %10, align 8
  store ptr %4, ptr %11, align 8
  store i32 %5, ptr %12, align 4
  %14 = load ptr, ptr %10, align 8
  %15 = getelementptr inbounds %struct._asn1_ctx_t, ptr %14, i32 0, i32 3
  %16 = load ptr, ptr %15, align 8
  %17 = load ptr, ptr %8, align 8
  %18 = call i32 @tvb_raw_offset(ptr noundef %17)
  %19 = load i32, ptr @keep_persistent_data, align 4
  %20 = call ptr @gcp_msg(ptr noundef %16, i32 noundef %18, i32 noundef %19)
  %21 = getelementptr inbounds %struct._h248_curr_info_t, ptr @curr_info, i32 0, i32 2
  store ptr %20, ptr %21, align 8
  %22 = load i8, ptr %7, align 1
  %23 = trunc i8 %22 to i1
  %24 = load ptr, ptr %10, align 8
  %25 = load ptr, ptr %11, align 8
  %26 = load ptr, ptr %8, align 8
  %27 = load i32, ptr %9, align 4
  %28 = load i32, ptr %12, align 4
  %29 = load i32, ptr @ett_h248_Message, align 4
  %30 = call i32 @dissect_ber_sequence(i1 noundef zeroext %23, ptr noundef %24, ptr noundef %25, ptr noundef %26, i32 noundef %27, ptr noundef @Message_sequence, i32 noundef %28, i32 noundef %29)
  store i32 %30, ptr %9, align 4
  %31 = load ptr, ptr %10, align 8
  %32 = getelementptr inbounds %struct._asn1_ctx_t, ptr %31, i32 0, i32 3
  %33 = load ptr, ptr %32, align 8
  %34 = getelementptr inbounds %struct._packet_info, ptr %33, i32 0, i32 1
  %35 = load ptr, ptr %34, align 8
  %36 = getelementptr inbounds %struct._h248_curr_info_t, ptr @curr_info, i32 0, i32 2
  %37 = load ptr, ptr %36, align 8
  %38 = load ptr, ptr %10, align 8
  %39 = getelementptr inbounds %struct._asn1_ctx_t, ptr %38, i32 0, i32 3
  %40 = load ptr, ptr %39, align 8
  %41 = getelementptr inbounds %struct._packet_info, ptr %40, i32 0, i32 50
  %42 = load ptr, ptr %41, align 8
  %43 = load i32, ptr @keep_persistent_data, align 4
  %44 = call ptr @gcp_msg_to_str(ptr noundef %37, ptr noundef %42, i32 noundef %43)
  call void @col_add_str(ptr noundef %35, i32 noundef 25, ptr noundef %44)
  %45 = load i32, ptr @keep_persistent_data, align 4
  %46 = icmp ne i32 %45, 0
  br i1 %46, label %47, label %55

47:                                               ; preds = %6
  %48 = load ptr, ptr @h248_tree, align 8
  %49 = load ptr, ptr %10, align 8
  %50 = getelementptr inbounds %struct._asn1_ctx_t, ptr %49, i32 0, i32 3
  %51 = load ptr, ptr %50, align 8
  %52 = load ptr, ptr %8, align 8
  %53 = getelementptr inbounds %struct._h248_curr_info_t, ptr @curr_info, i32 0, i32 2
  %54 = load ptr, ptr %53, align 8
  call void @gcp_analyze_msg(ptr noundef %48, ptr noundef %51, ptr noundef %52, ptr noundef %54, ptr noundef @h248_arrel, ptr noundef @ei_h248_errored_command)
  br label %55

55:                                               ; preds = %47, %6
  %56 = load i32, ptr %9, align 4
  ret i32 %56
}