; Function Attrs: nounwind uwtable
define internal i32 @dissect_h248_Message(i1 noundef zeroext %0, ptr noundef %1, i32 noundef %2, ptr noundef %3, ptr noundef %4, i32 noundef %5) #0 {
  %7 = getelementptr inbounds nuw i8, ptr %3, i64 16
  %8 = load ptr, ptr %7, align 8
  %9 = tail call i32 @tvb_raw_offset(ptr noundef %1) #7
  %10 = load i32, ptr @keep_persistent_data, align 4
  %11 = tail call ptr @gcp_msg(ptr noundef %8, i32 noundef %9, i32 noundef %10)
  store ptr %11, ptr getelementptr inbounds nuw (i8, ptr @curr_info, i64 16), align 8
  %12 = load i32, ptr @ett_h248_Message, align 4
  %13 = tail call i32 @dissect_ber_sequence(i1 noundef zeroext %0, ptr noundef %3, ptr noundef %4, ptr noundef %1, i32 noundef %2, ptr noundef nonnull @Message_sequence, i32 noundef %5, i32 noundef %12) #7
  %14 = load ptr, ptr %7, align 8
  %15 = getelementptr inbounds nuw i8, ptr %14, i64 8
  %16 = load ptr, ptr %15, align 8
  %17 = load ptr, ptr getelementptr inbounds nuw (i8, ptr @curr_info, i64 16), align 8
  %18 = getelementptr inbounds nuw i8, ptr %14, i64 408
  %19 = load ptr, ptr %18, align 8
  %20 = load i32, ptr @keep_persistent_data, align 4
  %21 = tail call ptr @gcp_msg_to_str(ptr noundef %17, ptr noundef %19, i32 noundef %20)
  tail call void @col_add_str(ptr noundef %16, i32 noundef 25, ptr noundef %21) #7
  %22 = load i32, ptr @keep_persistent_data, align 4
  %.not = icmp eq i32 %22, 0
  br i1 %.not, label %27, label %23

23:                                               ; preds = %6
  %24 = load ptr, ptr @h248_tree, align 8
  %25 = load ptr, ptr %7, align 8
  %26 = load ptr, ptr getelementptr inbounds nuw (i8, ptr @curr_info, i64 16), align 8
  tail call void @gcp_analyze_msg(ptr noundef %24, ptr noundef %25, ptr noundef %1, ptr noundef %26, ptr noundef nonnull @h248_arrel, ptr noundef nonnull @ei_h248_errored_command)
  br label %27

27:                                               ; preds = %23, %6
  ret i32 %13
}